target datalayout = "e-m:e-p270:32:32-p271:32:32-p272:64:64-i64:64-i128:128-f80:128-n8:16:32:64-S128"
target triple = "x86_64-pc-linux-gnu"

%struct.rb_scope_visi_struct = type { i8, [3 x i8] }
%struct.rb_cref_struct = type { i64, i64, i64, ptr, %struct.rb_scope_visi_struct }

@__const.rb_mod_define_method.default_scope_visi = private unnamed_addr constant %struct.rb_scope_visi_struct { i8 1, [3 x i8] zeroinitializer }, align 4

; Function Attrs: inlinehint nounwind sspstrong uwtable
define internal ptr @CREF_SCOPE_VISI(ptr noundef %0) #3 {
  %2 = alloca ptr, align 8
  store ptr %0, ptr %2, align 8, !tbaa !132
  %3 = load ptr, ptr %2, align 8, !tbaa !132
  %4 = getelementptr inbounds nuw %struct.rb_cref_struct, ptr %3, i32 0, i32 4
  ret ptr %4
}

; Function Attrs: nounwind sspstrong uwtable
define internal i64 @rb_mod_define_method(i32 noundef %0, ptr noundef %1, i64 noundef %2) #0 {
  %4 = alloca i32, align 4
  %5 = alloca ptr, align 8
  %6 = alloca i64, align 8
  %7 = alloca ptr, align 8
  %8 = alloca %struct.rb_scope_visi_struct, align 4
  %9 = alloca ptr, align 8
  store i32 %0, ptr %4, align 4, !tbaa !36
  store ptr %1, ptr %5, align 8, !tbaa !35
  store i64 %2, ptr %6, align 8, !tbaa !7
  call void @llvm.lifetime.start.p0(i64 8, ptr %7) #25
  %10 = load i64, ptr %6, align 8, !tbaa !7
  %11 = load i64, ptr %6, align 8, !tbaa !7
  %12 = call ptr @rb_vm_cref_in_context(i64 noundef %10, i64 noundef %11)
  store ptr %12, ptr %7, align 8, !tbaa !132
  call void @llvm.lifetime.start.p0(i64 4, ptr %8) #25
  call void @llvm.memcpy.p0.p0.i64(ptr align 4 %8, ptr align 4 @__const.rb_mod_define_method.default_scope_visi, i64 4, i1 false)
  call void @llvm.lifetime.start.p0(i64 8, ptr %9) #25
  store ptr %8, ptr %9, align 8, !tbaa !134
  %13 = load ptr, ptr %7, align 8, !tbaa !132
  %14 = icmp ne ptr %13, null
  br i1 %14, label %15, label %18

15:                                               ; preds = %3
  %16 = load ptr, ptr %7, align 8, !tbaa !132
  %17 = call ptr @CREF_SCOPE_VISI(ptr noundef %16)
  store ptr %17, ptr %9, align 8, !tbaa !134
  br label %18

18:                                               ; preds = %15, %3
  %19 = load i32, ptr %4, align 4, !tbaa !36
  %20 = load ptr, ptr %5, align 8, !tbaa !35
  %21 = load i64, ptr %6, align 8, !tbaa !7
  %22 = load ptr, ptr %9, align 8, !tbaa !134
  %23 = call i64 @rb_mod_define_method_with_visibility(i32 noundef %19, ptr noundef %20, i64 noundef %21, ptr noundef %22)
  call void @llvm.lifetime.end.p0(i64 8, ptr %9) #25
  call void @llvm.lifetime.end.p0(i64 4, ptr %8) #25
  call void @llvm.lifetime.end.p0(i64 8, ptr %7) #25
  ret i64 %23
}