; Function Attrs: nounwind sspstrong uwtable
define internal i64 @rb_mod_define_method(i32 noundef %0, ptr noundef readonly captures(none) %1, i64 noundef %2) #0 {
  %4 = alloca %struct.rb_scope_visi_struct, align 4
  %5 = tail call ptr @rb_vm_cref_in_context(i64 noundef %2, i64 noundef %2) #21
  call void @llvm.lifetime.start.p0(i64 4, ptr nonnull %4) #21
  store i32 1, ptr %4, align 4
  %.not = icmp eq ptr %5, null
  %6 = getelementptr inbounds nuw i8, ptr %5, i64 32
  %spec.select = select i1 %.not, ptr %4, ptr %6
  %7 = call fastcc i64 @rb_mod_define_method_with_visibility(i32 noundef %0, ptr noundef %1, i64 noundef %2, ptr noundef %spec.select)
  call void @llvm.lifetime.end.p0(i64 4, ptr nonnull %4) #21
  ret i64 %7
}